target datalayout = "e-m:e-p270:32:32-p271:32:32-p272:64:64-i64:64-i128:128-f80:128-n8:16:32:64-S128"
target triple = "x86_64-pc-linux-gnu"

@.str = private unnamed_addr constant [4 x i8] c"x64\00", align 1
@.str.1 = private unnamed_addr constant [4 x i8] c"x86\00", align 1
@.str.2 = private unnamed_addr constant [6 x i8] c"arm64\00", align 1

; Function Attrs: mustprogress nounwind uwtable
define signext i8 @checkCpuArchitecture(ptr noundef %0) #0 {
  %2 = alloca ptr, align 8
  store ptr %0, ptr %2, align 8, !tbaa !17
  %3 = load ptr, ptr %2, align 8, !tbaa !17
  %4 = call i32 @strcmp(ptr noundef %3, ptr noundef @.str) #16
  %5 = icmp eq i32 %4, 0
  br i1 %5, label %14, label %6

6:                                                ; preds = %1
  %7 = load ptr, ptr %2, align 8, !tbaa !17
  %8 = call i32 @strcmp(ptr noundef %7, ptr noundef @.str.1) #16
  %9 = icmp eq i32 %8, 0
  br i1 %9, label %14, label %10

10:                                               ; preds = %6
  %11 = load ptr, ptr %2, align 8, !tbaa !17
  %12 = call i32 @strcmp(ptr noundef %11, ptr noundef @.str.2) #16
  %13 = icmp eq i32 %12, 0
  br label %14

14:                                               ; preds = %10, %6, %1
  %15 = phi i1 [ true, %6 ], [ true, %1 ], [ %13, %10 ]
  %16 = zext i1 %15 to i8
  ret i8 %16
}