; Function Attrs: mustprogress nofree nounwind willreturn memory(argmem: read) uwtable
define signext range(i8 0, 2) i8 @checkCpuArchitecture(ptr noundef readonly captures(none) %0) local_unnamed_addr #12 {
  %2 = tail call i32 @strcmp(ptr noundef nonnull dereferenceable(1) %0, ptr noundef nonnull dereferenceable(4) @.str) #24
  %3 = icmp eq i32 %2, 0
  br i1 %3, label %11, label %4

4:                                                ; preds = %1
  %5 = tail call i32 @strcmp(ptr noundef nonnull dereferenceable(1) %0, ptr noundef nonnull dereferenceable(4) @.str.1) #24
  %6 = icmp eq i32 %5, 0
  br i1 %6, label %11, label %7

7:                                                ; preds = %4
  %8 = tail call i32 @strcmp(ptr noundef nonnull dereferenceable(1) %0, ptr noundef nonnull dereferenceable(6) @.str.2) #24
  %9 = icmp eq i32 %8, 0
  %10 = zext i1 %9 to i8
  br label %11

11:                                               ; preds = %7, %4, %1
  %12 = phi i8 [ 1, %4 ], [ 1, %1 ], [ %10, %7 ]
  ret i8 %12
}